target datalayout = "e-m:e-p270:32:32-p271:32:32-p272:64:64-i64:64-i128:128-f80:128-n8:16:32:64-S128"
target triple = "x86_64-pc-linux-gnu"

; Function Attrs: nounwind uwtable
define i32 @ff_mlp_pack_output(i32 noundef %0, i16 noundef zeroext %1, ptr noundef %2, ptr noundef %3, ptr noundef %4, ptr noundef %5, i8 noundef zeroext %6, i32 noundef %7) #0 {
  %9 = alloca i32, align 4
  %10 = alloca i16, align 2
  %11 = alloca ptr, align 8
  %12 = alloca ptr, align 8
  %13 = alloca ptr, align 8
  %14 = alloca ptr, align 8
  %15 = alloca i8, align 1
  %16 = alloca i32, align 4
  %17 = alloca i32, align 4
  %18 = alloca i32, align 4
  %19 = alloca ptr, align 8
  %20 = alloca ptr, align 8
  %21 = alloca i32, align 4
  %22 = alloca i32, align 4
  store i32 %0, ptr %9, align 4, !tbaa !11
  store i16 %1, ptr %10, align 2, !tbaa !13
  store ptr %2, ptr %11, align 8, !tbaa !4
  store ptr %3, ptr %12, align 8, !tbaa !21
  store ptr %4, ptr %13, align 8, !tbaa !9
  store ptr %5, ptr %14, align 8, !tbaa !9
  store i8 %6, ptr %15, align 1, !tbaa !19
  store i32 %7, ptr %16, align 4, !tbaa !11
  call void @llvm.lifetime.start.p0(i64 4, ptr %17) #3
  call void @llvm.lifetime.start.p0(i64 4, ptr %18) #3
  store i32 0, ptr %18, align 4, !tbaa !11
  call void @llvm.lifetime.start.p0(i64 8, ptr %19) #3
  %23 = load ptr, ptr %12, align 8, !tbaa !21
  store ptr %23, ptr %19, align 8, !tbaa !4
  call void @llvm.lifetime.start.p0(i64 8, ptr %20) #3
  %24 = load ptr, ptr %12, align 8, !tbaa !21
  store ptr %24, ptr %20, align 8, !tbaa !22
  store i32 0, ptr %17, align 4, !tbaa !11
  br label %25

25:                                               ; preds = %83, %8
  %26 = load i32, ptr %17, align 4, !tbaa !11
  %27 = load i16, ptr %10, align 2, !tbaa !13
  %28 = zext i16 %27 to i32
  %29 = icmp ult i32 %26, %28
  br i1 %29, label %30, label %86

30:                                               ; preds = %25
  store i32 0, ptr %18, align 4, !tbaa !11
  br label %31

31:                                               ; preds = %79, %30
  %32 = load i32, ptr %18, align 4, !tbaa !11
  %33 = load i8, ptr %15, align 1, !tbaa !19
  %34 = zext i8 %33 to i32
  %35 = icmp ule i32 %32, %34
  br i1 %35, label %36, label %82

36:                                               ; preds = %31
  call void @llvm.lifetime.start.p0(i64 4, ptr %21) #3
  %37 = load ptr, ptr %13, align 8, !tbaa !9
  %38 = load i32, ptr %18, align 4, !tbaa !11
  %39 = zext i32 %38 to i64
  %40 = getelementptr inbounds nuw i8, ptr %37, i64 %39
  %41 = load i8, ptr %40, align 1, !tbaa !19
  %42 = zext i8 %41 to i32
  store i32 %42, ptr %21, align 4, !tbaa !11
  call void @llvm.lifetime.start.p0(i64 4, ptr %22) #3
  %43 = load ptr, ptr %11, align 8, !tbaa !4
  %44 = load i32, ptr %17, align 4, !tbaa !11
  %45 = zext i32 %44 to i64
  %46 = getelementptr inbounds nuw [8 x i32], ptr %43, i64 %45
  %47 = load i32, ptr %21, align 4, !tbaa !11
  %48 = sext i32 %47 to i64
  %49 = getelementptr inbounds [8 x i32], ptr %46, i64 0, i64 %48
  %50 = load i32, ptr %49, align 4, !tbaa !11
  %51 = load ptr, ptr %14, align 8, !tbaa !9
  %52 = load i32, ptr %21, align 4, !tbaa !11
  %53 = sext i32 %52 to i64
  %54 = getelementptr inbounds i8, ptr %51, i64 %53
  %55 = load i8, ptr %54, align 1, !tbaa !19
  %56 = sext i8 %55 to i32
  %57 = shl i32 1, %56
  %58 = mul i32 %50, %57
  store i32 %58, ptr %22, align 4, !tbaa !11
  %59 = load i32, ptr %22, align 4, !tbaa !11
  %60 = and i32 %59, 16777215
  %61 = load i32, ptr %21, align 4, !tbaa !11
  %62 = shl i32 %60, %61
  %63 = load i32, ptr %9, align 4, !tbaa !11
  %64 = xor i32 %63, %62
  store i32 %64, ptr %9, align 4, !tbaa !11
  %65 = load i32, ptr %16, align 4, !tbaa !11
  %66 = icmp ne i32 %65, 0
  br i1 %66, label %67, label %72

67:                                               ; preds = %36
  %68 = load i32, ptr %22, align 4, !tbaa !11
  %69 = mul i32 %68, 256
  %70 = load ptr, ptr %19, align 8, !tbaa !4
  %71 = getelementptr inbounds nuw i32, ptr %70, i32 1
  store ptr %71, ptr %19, align 8, !tbaa !4
  store i32 %69, ptr %70, align 4, !tbaa !11
  br label %78

72:                                               ; preds = %36
  %73 = load i32, ptr %22, align 4, !tbaa !11
  %74 = ashr i32 %73, 8
  %75 = trunc i32 %74 to i16
  %76 = load ptr, ptr %20, align 8, !tbaa !22
  %77 = getelementptr inbounds nuw i16, ptr %76, i32 1
  store ptr %77, ptr %20, align 8, !tbaa !22
  store i16 %75, ptr %76, align 2, !tbaa !13
  br label %78

78:                                               ; preds = %72, %67
  call void @llvm.lifetime.end.p0(i64 4, ptr %22) #3
  call void @llvm.lifetime.end.p0(i64 4, ptr %21) #3
  br label %79

79:                                               ; preds = %78
  %80 = load i32, ptr %18, align 4, !tbaa !11
  %81 = add i32 %80, 1
  store i32 %81, ptr %18, align 4, !tbaa !11
  br label %31, !llvm.loop !24

82:                                               ; preds = %31
  br label %83

83:                                               ; preds = %82
  %84 = load i32, ptr %17, align 4, !tbaa !11
  %85 = add i32 %84, 1
  store i32 %85, ptr %17, align 4, !tbaa !11
  br label %25, !llvm.loop !25

86:                                               ; preds = %25
  %87 = load i32, ptr %9, align 4, !tbaa !11
  call void @llvm.lifetime.end.p0(i64 8, ptr %20) #3
  call void @llvm.lifetime.end.p0(i64 8, ptr %19) #3
  call void @llvm.lifetime.end.p0(i64 4, ptr %18) #3
  call void @llvm.lifetime.end.p0(i64 4, ptr %17) #3
  ret i32 %87
}